; Function Attrs: mustprogress nounwind uwtable
define internal void @_ZN12_GLOBAL__N_118VirtualCallCheckerD0Ev(ptr noundef nonnull align 8 dereferenceable(49) initializes((0, 8)) %0) unnamed_addr #0 align 2 {
  store ptr getelementptr inbounds nuw inrange(-16, 32) (i8, ptr @_ZTVN12_GLOBAL__N_118VirtualCallCheckerE, i64 16), ptr %0, align 8
  %2 = getelementptr inbounds nuw i8, ptr %0, i64 40
  %3 = load ptr, ptr %2, align 8
  %.not.i.i = icmp eq ptr %3, null
  br i1 %.not.i.i, label %_ZNSt10unique_ptrIN5clang4ento7BugTypeESt14default_deleteIS2_EED2Ev.exit.i, label %_ZNKSt14default_deleteIN5clang4ento7BugTypeEEclEPS2_.exit.i.i

_ZNKSt14default_deleteIN5clang4ento7BugTypeEEclEPS2_.exit.i.i: ; preds = %1
  %4 = load ptr, ptr %3, align 8
  %5 = getelementptr inbounds nuw i8, ptr %4, i64 16
  %6 = load ptr, ptr %5, align 8
  tail call void %6(ptr noundef nonnull align 8 dereferenceable(97) %3) #21
  br label %_ZNSt10unique_ptrIN5clang4ento7BugTypeESt14default_deleteIS2_EED2Ev.exit.i

_ZNSt10unique_ptrIN5clang4ento7BugTypeESt14default_deleteIS2_EED2Ev.exit.i: ; preds = %_ZNKSt14default_deleteIN5clang4ento7BugTypeEEclEPS2_.exit.i.i, %1
  store ptr null, ptr %2, align 8
  %7 = getelementptr inbounds nuw i8, ptr %0, i64 32
  %8 = load ptr, ptr %7, align 8
  %.not.i1.i = icmp eq ptr %8, null
  br i1 %.not.i1.i, label %_ZN12_GLOBAL__N_118VirtualCallCheckerD2Ev.exit, label %_ZNKSt14default_deleteIN5clang4ento7BugTypeEEclEPS2_.exit.i2.i

_ZNKSt14default_deleteIN5clang4ento7BugTypeEEclEPS2_.exit.i2.i: ; preds = %_ZNSt10unique_ptrIN5clang4ento7BugTypeESt14default_deleteIS2_EED2Ev.exit.i
  %9 = load ptr, ptr %8, align 8
  %10 = getelementptr inbounds nuw i8, ptr %9, i64 16
  %11 = load ptr, ptr %10, align 8
  tail call void %11(ptr noundef nonnull align 8 dereferenceable(97) %8) #21
  br label %_ZN12_GLOBAL__N_118VirtualCallCheckerD2Ev.exit

_ZN12_GLOBAL__N_118VirtualCallCheckerD2Ev.exit:   ; preds = %_ZNSt10unique_ptrIN5clang4ento7BugTypeESt14default_deleteIS2_EED2Ev.exit.i, %_ZNKSt14default_deleteIN5clang4ento7BugTypeEEclEPS2_.exit.i2.i
  store ptr null, ptr %7, align 8
  tail call void @_ZN5clang15ProgramPointTagD2Ev(ptr noundef nonnull align 8 dereferenceable(49) %0) #21
  tail call void @_ZdlPvm(ptr noundef nonnull %0, i64 noundef 56) #20
  ret void
}